target datalayout = "e-m:e-p270:32:32-p271:32:32-p272:64:64-i64:64-i128:128-f80:128-n8:16:32:64-S128"
target triple = "x86_64-pc-linux-gnu"

%struct.opj_j2k = type { i32, %union.anon, ptr, ptr, %struct.opj_cp, ptr, ptr, ptr, i32, ptr, ptr, i32, i32, i32 }
%union.anon = type { %struct.opj_j2k_dec }
%struct.opj_j2k_dec = type { i32, ptr, ptr, i32, i32, i32, i32, i32, i32, i32, i64, i32, i32, ptr, %struct.opj_j2k_tlm_info, i32, i32, ptr, i8 }
%struct.opj_j2k_tlm_info = type { i32, ptr, i32 }
%struct.opj_cp = type { i16, i32, i32, i32, i32, ptr, i32, i32, i32, ptr, ptr, i32, i32, ptr, ptr, ptr, i32, i32, i32, ptr, %union.anon.0, i32, i8 }
%union.anon.0 = type { %struct.opj_encoding_param }
%struct.opj_encoding_param = type { i32, i32, ptr, i8, i32, i8 }

; Function Attrs: nounwind uwtable
define internal i32 @opj_j2k_setup_header_reading(ptr noundef %0, ptr noundef %1) #0 {
  %3 = alloca i32, align 4
  %4 = alloca ptr, align 8
  %5 = alloca ptr, align 8
  store ptr %0, ptr %4, align 8, !tbaa !14
  store ptr %1, ptr %5, align 8, !tbaa !48
  %6 = load ptr, ptr %4, align 8, !tbaa !14
  %7 = getelementptr inbounds nuw %struct.opj_j2k, ptr %6, i32 0, i32 5
  %8 = load ptr, ptr %7, align 8, !tbaa !40
  %9 = load ptr, ptr %5, align 8, !tbaa !48
  %10 = call i32 @opj_procedure_list_add_procedure(ptr noundef %8, ptr noundef @opj_j2k_read_header_procedure, ptr noundef %9)
  %11 = icmp ne i32 %10, 0
  br i1 %11, label %13, label %12

12:                                               ; preds = %2
  store i32 0, ptr %3, align 4
  br label %22

13:                                               ; preds = %2
  %14 = load ptr, ptr %4, align 8, !tbaa !14
  %15 = getelementptr inbounds nuw %struct.opj_j2k, ptr %14, i32 0, i32 5
  %16 = load ptr, ptr %15, align 8, !tbaa !40
  %17 = load ptr, ptr %5, align 8, !tbaa !48
  %18 = call i32 @opj_procedure_list_add_procedure(ptr noundef %16, ptr noundef @opj_j2k_copy_default_tcp_and_create_tcd, ptr noundef %17)
  %19 = icmp ne i32 %18, 0
  br i1 %19, label %21, label %20

20:                                               ; preds = %13
  store i32 0, ptr %3, align 4
  br label %22

21:                                               ; preds = %13
  store i32 1, ptr %3, align 4
  br label %22

22:                                               ; preds = %21, %20, %12
  %23 = load i32, ptr %3, align 4
  ret i32 %23
}

; Function Attrs: nounwind uwtable
define internal i32 @opj_j2k_exec(ptr noundef %0, ptr noundef %1, ptr noundef %2, ptr noundef %3) #0 {
  %5 = alloca ptr, align 8
  %6 = alloca ptr, align 8
  %7 = alloca ptr, align 8
  %8 = alloca ptr, align 8
  %9 = alloca ptr, align 8
  %10 = alloca i32, align 4
  %11 = alloca i32, align 4
  %12 = alloca i32, align 4
  store ptr %0, ptr %5, align 8, !tbaa !14
  store ptr %1, ptr %6, align 8, !tbaa !211
  store ptr %2, ptr %7, align 8, !tbaa !206
  store ptr %3, ptr %8, align 8, !tbaa !48
  call void @llvm.lifetime.start.p0(i64 8, ptr %9) #10
  store ptr null, ptr %9, align 8, !tbaa !212
  call void @llvm.lifetime.start.p0(i64 4, ptr %10) #10
  store i32 1, ptr %10, align 4, !tbaa !3
  call void @llvm.lifetime.start.p0(i64 4, ptr %11) #10
  call void @llvm.lifetime.start.p0(i64 4, ptr %12) #10
  %13 = load ptr, ptr %6, align 8, !tbaa !211
  %14 = call i32 @opj_procedure_list_get_nb_procedures(ptr noundef %13)
  store i32 %14, ptr %11, align 4, !tbaa !3
  %15 = load ptr, ptr %6, align 8, !tbaa !211
  %16 = call ptr @opj_procedure_list_get_first_procedure(ptr noundef %15)
  store ptr %16, ptr %9, align 8, !tbaa !212
  store i32 0, ptr %12, align 4, !tbaa !3
  br label %17

17:                                               ; preds = %37, %4
  %18 = load i32, ptr %12, align 4, !tbaa !3
  %19 = load i32, ptr %11, align 4, !tbaa !3
  %20 = icmp ult i32 %18, %19
  br i1 %20, label %21, label %40

21:                                               ; preds = %17
  %22 = load i32, ptr %10, align 4, !tbaa !3
  %23 = icmp ne i32 %22, 0
  br i1 %23, label %24, label %32

24:                                               ; preds = %21
  %25 = load ptr, ptr %9, align 8, !tbaa !212
  %26 = load ptr, ptr %25, align 8, !tbaa !194
  %27 = load ptr, ptr %5, align 8, !tbaa !14
  %28 = load ptr, ptr %7, align 8, !tbaa !206
  %29 = load ptr, ptr %8, align 8, !tbaa !48
  %30 = call i32 %26(ptr noundef %27, ptr noundef %28, ptr noundef %29)
  %31 = icmp ne i32 %30, 0
  br label %32

32:                                               ; preds = %24, %21
  %33 = phi i1 [ false, %21 ], [ %31, %24 ]
  %34 = zext i1 %33 to i32
  store i32 %34, ptr %10, align 4, !tbaa !3
  %35 = load ptr, ptr %9, align 8, !tbaa !212
  %36 = getelementptr inbounds nuw ptr, ptr %35, i32 1
  store ptr %36, ptr %9, align 8, !tbaa !212
  br label %37

37:                                               ; preds = %32
  %38 = load i32, ptr %12, align 4, !tbaa !3
  %39 = add i32 %38, 1
  store i32 %39, ptr %12, align 4, !tbaa !3
  br label %17, !llvm.loop !213

40:                                               ; preds = %17
  %41 = load ptr, ptr %6, align 8, !tbaa !211
  call void @opj_procedure_list_clear(ptr noundef %41)
  %42 = load i32, ptr %10, align 4, !tbaa !3
  call void @llvm.lifetime.end.p0(i64 4, ptr %12) #10
  call void @llvm.lifetime.end.p0(i64 4, ptr %11) #10
  call void @llvm.lifetime.end.p0(i64 4, ptr %10) #10
  call void @llvm.lifetime.end.p0(i64 8, ptr %9) #10
  ret i32 %42
}

; Function Attrs: nounwind uwtable
define internal i32 @opj_j2k_setup_decoding_validation(ptr noundef %0, ptr noundef %1) #0 {
  %3 = alloca i32, align 4
  %4 = alloca ptr, align 8
  %5 = alloca ptr, align 8
  store ptr %0, ptr %4, align 8, !tbaa !14
  store ptr %1, ptr %5, align 8, !tbaa !48
  %6 = load ptr, ptr %4, align 8, !tbaa !14
  %7 = getelementptr inbounds nuw %struct.opj_j2k, ptr %6, i32 0, i32 6
  %8 = load ptr, ptr %7, align 8, !tbaa !39
  %9 = load ptr, ptr %5, align 8, !tbaa !48
  %10 = call i32 @opj_procedure_list_add_procedure(ptr noundef %8, ptr noundef @opj_j2k_build_decoder, ptr noundef %9)
  %11 = icmp ne i32 %10, 0
  br i1 %11, label %13, label %12

12:                                               ; preds = %2
  store i32 0, ptr %3, align 4
  br label %22

13:                                               ; preds = %2
  %14 = load ptr, ptr %4, align 8, !tbaa !14
  %15 = getelementptr inbounds nuw %struct.opj_j2k, ptr %14, i32 0, i32 6
  %16 = load ptr, ptr %15, align 8, !tbaa !39
  %17 = load ptr, ptr %5, align 8, !tbaa !48
  %18 = call i32 @opj_procedure_list_add_procedure(ptr noundef %16, ptr noundef @opj_j2k_decoding_validation, ptr noundef %17)
  %19 = icmp ne i32 %18, 0
  br i1 %19, label %21, label %20

20:                                               ; preds = %13
  store i32 0, ptr %3, align 4
  br label %22

21:                                               ; preds = %13
  store i32 1, ptr %3, align 4
  br label %22

22:                                               ; preds = %21, %20, %12
  %23 = load i32, ptr %3, align 4
  ret i32 %23
}

; Function Attrs: nounwind uwtable
define hidden i32 @opj_j2k_read_header(ptr noundef %0, ptr noundef %1, ptr noundef %2, ptr noundef %3) #0 {
  %5 = alloca i32, align 4
  %6 = alloca ptr, align 8
  %7 = alloca ptr, align 8
  %8 = alloca ptr, align 8
  %9 = alloca ptr, align 8
  store ptr %0, ptr %6, align 8, !tbaa !206
  store ptr %1, ptr %7, align 8, !tbaa !14
  store ptr %2, ptr %8, align 8, !tbaa !208
  store ptr %3, ptr %9, align 8, !tbaa !48
  %10 = call ptr @opj_image_create0()
  %11 = load ptr, ptr %7, align 8, !tbaa !14
  %12 = getelementptr inbounds nuw %struct.opj_j2k, ptr %11, i32 0, i32 2
  store ptr %10, ptr %12, align 8, !tbaa !42
  %13 = load ptr, ptr %7, align 8, !tbaa !14
  %14 = getelementptr inbounds nuw %struct.opj_j2k, ptr %13, i32 0, i32 2
  %15 = load ptr, ptr %14, align 8, !tbaa !42
  %16 = icmp ne ptr %15, null
  br i1 %16, label %18, label %17

17:                                               ; preds = %4
  store i32 0, ptr %5, align 4
  br label %83

18:                                               ; preds = %4
  %19 = load ptr, ptr %7, align 8, !tbaa !14
  %20 = load ptr, ptr %9, align 8, !tbaa !48
  %21 = call i32 @opj_j2k_setup_decoding_validation(ptr noundef %19, ptr noundef %20)
  %22 = icmp ne i32 %21, 0
  br i1 %22, label %29, label %23

23:                                               ; preds = %18
  %24 = load ptr, ptr %7, align 8, !tbaa !14
  %25 = getelementptr inbounds nuw %struct.opj_j2k, ptr %24, i32 0, i32 2
  %26 = load ptr, ptr %25, align 8, !tbaa !42
  call void @opj_image_destroy(ptr noundef %26)
  %27 = load ptr, ptr %7, align 8, !tbaa !14
  %28 = getelementptr inbounds nuw %struct.opj_j2k, ptr %27, i32 0, i32 2
  store ptr null, ptr %28, align 8, !tbaa !42
  store i32 0, ptr %5, align 4
  br label %83

29:                                               ; preds = %18
  %30 = load ptr, ptr %7, align 8, !tbaa !14
  %31 = load ptr, ptr %7, align 8, !tbaa !14
  %32 = getelementptr inbounds nuw %struct.opj_j2k, ptr %31, i32 0, i32 6
  %33 = load ptr, ptr %32, align 8, !tbaa !39
  %34 = load ptr, ptr %6, align 8, !tbaa !206
  %35 = load ptr, ptr %9, align 8, !tbaa !48
  %36 = call i32 @opj_j2k_exec(ptr noundef %30, ptr noundef %33, ptr noundef %34, ptr noundef %35)
  %37 = icmp ne i32 %36, 0
  br i1 %37, label %44, label %38

38:                                               ; preds = %29
  %39 = load ptr, ptr %7, align 8, !tbaa !14
  %40 = getelementptr inbounds nuw %struct.opj_j2k, ptr %39, i32 0, i32 2
  %41 = load ptr, ptr %40, align 8, !tbaa !42
  call void @opj_image_destroy(ptr noundef %41)
  %42 = load ptr, ptr %7, align 8, !tbaa !14
  %43 = getelementptr inbounds nuw %struct.opj_j2k, ptr %42, i32 0, i32 2
  store ptr null, ptr %43, align 8, !tbaa !42
  store i32 0, ptr %5, align 4
  br label %83

44:                                               ; preds = %29
  %45 = load ptr, ptr %7, align 8, !tbaa !14
  %46 = load ptr, ptr %9, align 8, !tbaa !48
  %47 = call i32 @opj_j2k_setup_header_reading(ptr noundef %45, ptr noundef %46)
  %48 = icmp ne i32 %47, 0
  br i1 %48, label %55, label %49

49:                                               ; preds = %44
  %50 = load ptr, ptr %7, align 8, !tbaa !14
  %51 = getelementptr inbounds nuw %struct.opj_j2k, ptr %50, i32 0, i32 2
  %52 = load ptr, ptr %51, align 8, !tbaa !42
  call void @opj_image_destroy(ptr noundef %52)
  %53 = load ptr, ptr %7, align 8, !tbaa !14
  %54 = getelementptr inbounds nuw %struct.opj_j2k, ptr %53, i32 0, i32 2
  store ptr null, ptr %54, align 8, !tbaa !42
  store i32 0, ptr %5, align 4
  br label %83

55:                                               ; preds = %44
  %56 = load ptr, ptr %7, align 8, !tbaa !14
  %57 = load ptr, ptr %7, align 8, !tbaa !14
  %58 = getelementptr inbounds nuw %struct.opj_j2k, ptr %57, i32 0, i32 5
  %59 = load ptr, ptr %58, align 8, !tbaa !40
  %60 = load ptr, ptr %6, align 8, !tbaa !206
  %61 = load ptr, ptr %9, align 8, !tbaa !48
  %62 = call i32 @opj_j2k_exec(ptr noundef %56, ptr noundef %59, ptr noundef %60, ptr noundef %61)
  %63 = icmp ne i32 %62, 0
  br i1 %63, label %70, label %64

64:                                               ; preds = %55
  %65 = load ptr, ptr %7, align 8, !tbaa !14
  %66 = getelementptr inbounds nuw %struct.opj_j2k, ptr %65, i32 0, i32 2
  %67 = load ptr, ptr %66, align 8, !tbaa !42
  call void @opj_image_destroy(ptr noundef %67)
  %68 = load ptr, ptr %7, align 8, !tbaa !14
  %69 = getelementptr inbounds nuw %struct.opj_j2k, ptr %68, i32 0, i32 2
  store ptr null, ptr %69, align 8, !tbaa !42
  store i32 0, ptr %5, align 4
  br label %83

70:                                               ; preds = %55
  %71 = call ptr @opj_image_create0()
  %72 = load ptr, ptr %8, align 8, !tbaa !208
  store ptr %71, ptr %72, align 8, !tbaa !47
  %73 = load ptr, ptr %8, align 8, !tbaa !208
  %74 = load ptr, ptr %73, align 8, !tbaa !47
  %75 = icmp ne ptr %74, null
  br i1 %75, label %77, label %76

76:                                               ; preds = %70
  store i32 0, ptr %5, align 4
  br label %83

77:                                               ; preds = %70
  %78 = load ptr, ptr %7, align 8, !tbaa !14
  %79 = getelementptr inbounds nuw %struct.opj_j2k, ptr %78, i32 0, i32 2
  %80 = load ptr, ptr %79, align 8, !tbaa !42
  %81 = load ptr, ptr %8, align 8, !tbaa !208
  %82 = load ptr, ptr %81, align 8, !tbaa !47
  call void @opj_copy_image_header(ptr noundef %80, ptr noundef %82)
  store i32 1, ptr %5, align 4
  br label %83

83:                                               ; preds = %77, %76, %64, %49, %38, %23, %17
  %84 = load i32, ptr %5, align 4
  ret i32 %84
}