; Function Attrs: nounwind uwtable
define hidden range(i32 0, 2) i32 @opj_j2k_read_header(ptr noundef %0, ptr noundef initializes((136, 144)) %1, ptr noundef writeonly captures(none) %2, ptr noundef %3) local_unnamed_addr #3 {
  %5 = tail call ptr @opj_image_create0() #21
  %6 = getelementptr inbounds nuw i8, ptr %1, i64 136
  store ptr %5, ptr %6, align 8, !tbaa !47
  %.not = icmp eq ptr %5, null
  br i1 %.not, label %55, label %7

7:                                                ; preds = %4
  %8 = getelementptr inbounds nuw i8, ptr %1, i64 320
  %9 = load ptr, ptr %8, align 8, !tbaa !32
  %10 = tail call i32 @opj_procedure_list_add_procedure(ptr noundef %9, ptr noundef nonnull @opj_j2k_build_decoder, ptr noundef %3) #21
  %.not.i = icmp eq i32 %10, 0
  br i1 %.not.i, label %opj_j2k_setup_decoding_validation.exit.thread, label %opj_j2k_setup_decoding_validation.exit

opj_j2k_setup_decoding_validation.exit:           ; preds = %7
  %11 = load ptr, ptr %8, align 8, !tbaa !32
  %12 = tail call i32 @opj_procedure_list_add_procedure(ptr noundef %11, ptr noundef nonnull @opj_j2k_decoding_validation, ptr noundef %3) #21
  %.not4.i.not = icmp eq i32 %12, 0
  br i1 %.not4.i.not, label %opj_j2k_setup_decoding_validation.exit.thread, label %14

opj_j2k_setup_decoding_validation.exit.thread:    ; preds = %7, %opj_j2k_setup_decoding_validation.exit
  %13 = load ptr, ptr %6, align 8, !tbaa !47
  tail call void @opj_image_destroy(ptr noundef %13) #21
  store ptr null, ptr %6, align 8, !tbaa !47
  br label %55

14:                                               ; preds = %opj_j2k_setup_decoding_validation.exit
  %15 = load ptr, ptr %8, align 8, !tbaa !32
  %16 = tail call i32 @opj_procedure_list_get_nb_procedures(ptr noundef %15) #21
  %17 = tail call ptr @opj_procedure_list_get_first_procedure(ptr noundef %15) #21
  %.not17.i = icmp eq i32 %16, 0
  br i1 %.not17.i, label %opj_j2k_exec.exit.thread, label %.lr.ph.i

opj_j2k_exec.exit.thread:                         ; preds = %14
  tail call void @opj_procedure_list_clear(ptr noundef %15) #21
  br label %29

.lr.ph.i:                                         ; preds = %14, %23
  %.016.i = phi i32 [ %26, %23 ], [ 0, %14 ]
  %.01215.i = phi ptr [ %25, %23 ], [ %17, %14 ]
  %.01314.i = phi i32 [ %24, %23 ], [ 1, %14 ]
  %.not.i32 = icmp eq i32 %.01314.i, 0
  br i1 %.not.i32, label %23, label %18

18:                                               ; preds = %.lr.ph.i
  %19 = load ptr, ptr %.01215.i, align 8, !tbaa !178
  %20 = tail call i32 %19(ptr noundef %1, ptr noundef %0, ptr noundef %3) #21
  %21 = icmp ne i32 %20, 0
  %22 = zext i1 %21 to i32
  br label %23

23:                                               ; preds = %18, %.lr.ph.i
  %24 = phi i32 [ 0, %.lr.ph.i ], [ %22, %18 ]
  %25 = getelementptr inbounds nuw i8, ptr %.01215.i, i64 8
  %26 = add nuw i32 %.016.i, 1
  %exitcond.not.i = icmp eq i32 %26, %16
  br i1 %exitcond.not.i, label %opj_j2k_exec.exit, label %.lr.ph.i, !llvm.loop !189

opj_j2k_exec.exit:                                ; preds = %23
  tail call void @opj_procedure_list_clear(ptr noundef %15) #21
  %.not28 = icmp eq i32 %24, 0
  br i1 %.not28, label %27, label %29

27:                                               ; preds = %opj_j2k_exec.exit
  %28 = load ptr, ptr %6, align 8, !tbaa !47
  tail call void @opj_image_destroy(ptr noundef %28) #21
  store ptr null, ptr %6, align 8, !tbaa !47
  br label %55

29:                                               ; preds = %opj_j2k_exec.exit.thread, %opj_j2k_exec.exit
  %30 = getelementptr inbounds nuw i8, ptr %1, i64 312
  %31 = load ptr, ptr %30, align 8, !tbaa !33
  %32 = tail call i32 @opj_procedure_list_add_procedure(ptr noundef %31, ptr noundef nonnull @opj_j2k_read_header_procedure, ptr noundef %3) #21
  %.not.i33 = icmp eq i32 %32, 0
  br i1 %.not.i33, label %opj_j2k_setup_header_reading.exit.thread, label %opj_j2k_setup_header_reading.exit

opj_j2k_setup_header_reading.exit:                ; preds = %29
  %33 = load ptr, ptr %30, align 8, !tbaa !33
  %34 = tail call i32 @opj_procedure_list_add_procedure(ptr noundef %33, ptr noundef nonnull @opj_j2k_copy_default_tcp_and_create_tcd, ptr noundef %3) #21
  %.not4.i34.not = icmp eq i32 %34, 0
  br i1 %.not4.i34.not, label %opj_j2k_setup_header_reading.exit.thread, label %36

opj_j2k_setup_header_reading.exit.thread:         ; preds = %29, %opj_j2k_setup_header_reading.exit
  %35 = load ptr, ptr %6, align 8, !tbaa !47
  tail call void @opj_image_destroy(ptr noundef %35) #21
  store ptr null, ptr %6, align 8, !tbaa !47
  br label %55

36:                                               ; preds = %opj_j2k_setup_header_reading.exit
  %37 = load ptr, ptr %30, align 8, !tbaa !33
  %38 = tail call i32 @opj_procedure_list_get_nb_procedures(ptr noundef %37) #21
  %39 = tail call ptr @opj_procedure_list_get_first_procedure(ptr noundef %37) #21
  %.not17.i37 = icmp eq i32 %38, 0
  br i1 %.not17.i37, label %opj_j2k_exec.exit45.thread, label %.lr.ph.i38

opj_j2k_exec.exit45.thread:                       ; preds = %36
  tail call void @opj_procedure_list_clear(ptr noundef %37) #21
  br label %51

.lr.ph.i38:                                       ; preds = %36, %45
  %.016.i39 = phi i32 [ %48, %45 ], [ 0, %36 ]
  %.01215.i40 = phi ptr [ %47, %45 ], [ %39, %36 ]
  %.01314.i41 = phi i32 [ %46, %45 ], [ 1, %36 ]
  %.not.i42 = icmp eq i32 %.01314.i41, 0
  br i1 %.not.i42, label %45, label %40

40:                                               ; preds = %.lr.ph.i38
  %41 = load ptr, ptr %.01215.i40, align 8, !tbaa !178
  %42 = tail call i32 %41(ptr noundef %1, ptr noundef %0, ptr noundef %3) #21
  %43 = icmp ne i32 %42, 0
  %44 = zext i1 %43 to i32
  br label %45

45:                                               ; preds = %40, %.lr.ph.i38
  %46 = phi i32 [ 0, %.lr.ph.i38 ], [ %44, %40 ]
  %47 = getelementptr inbounds nuw i8, ptr %.01215.i40, i64 8
  %48 = add nuw i32 %.016.i39, 1
  %exitcond.not.i43 = icmp eq i32 %48, %38
  br i1 %exitcond.not.i43, label %opj_j2k_exec.exit45, label %.lr.ph.i38, !llvm.loop !189

opj_j2k_exec.exit45:                              ; preds = %45
  tail call void @opj_procedure_list_clear(ptr noundef %37) #21
  %.not30 = icmp eq i32 %46, 0
  br i1 %.not30, label %49, label %51

49:                                               ; preds = %opj_j2k_exec.exit45
  %50 = load ptr, ptr %6, align 8, !tbaa !47
  tail call void @opj_image_destroy(ptr noundef %50) #21
  store ptr null, ptr %6, align 8, !tbaa !47
  br label %55

51:                                               ; preds = %opj_j2k_exec.exit45.thread, %opj_j2k_exec.exit45
  %52 = tail call ptr @opj_image_create0() #21
  store ptr %52, ptr %2, align 8, !tbaa !190
  %.not31 = icmp eq ptr %52, null
  br i1 %.not31, label %55, label %53

53:                                               ; preds = %51
  %54 = load ptr, ptr %6, align 8, !tbaa !47
  tail call void @opj_copy_image_header(ptr noundef %54, ptr noundef nonnull %52) #21
  br label %55

55:                                               ; preds = %51, %4, %53, %49, %opj_j2k_setup_header_reading.exit.thread, %27, %opj_j2k_setup_decoding_validation.exit.thread
  %.0 = phi i32 [ 1, %53 ], [ 0, %49 ], [ 0, %opj_j2k_setup_header_reading.exit.thread ], [ 0, %27 ], [ 0, %opj_j2k_setup_decoding_validation.exit.thread ], [ 0, %4 ], [ 0, %51 ]
  ret i32 %.0
}